target datalayout = "e-m:e-p270:32:32-p271:32:32-p272:64:64-i64:64-i128:128-f80:128-n8:16:32:64-S128"
target triple = "x86_64-pc-linux-gnu"

%"class.rocksdb::StderrLogger" = type { %"class.rocksdb::Logger.base", ptr, i64 }
%"class.rocksdb::Logger.base" = type <{ ptr, i8, i8 }>

; Function Attrs: mustprogress nounwind uwtable
define void @_ZN7rocksdb12StderrLoggerD2Ev(ptr noundef nonnull align 8 dereferenceable(32) %0) unnamed_addr #0 align 2 {
  %2 = alloca ptr, align 8
  store ptr %0, ptr %2, align 8, !tbaa !4
  %3 = load ptr, ptr %2, align 8
  store ptr getelementptr inbounds inrange(-16, 88) ({ [13 x ptr] }, ptr @_ZTVN7rocksdb12StderrLoggerE, i32 0, i32 0, i32 2), ptr %3, align 8, !tbaa !9
  %4 = getelementptr inbounds nuw %"class.rocksdb::StderrLogger", ptr %3, i32 0, i32 1
  %5 = load ptr, ptr %4, align 8, !tbaa !11
  %6 = icmp ne ptr %5, null
  br i1 %6, label %7, label %10

7:                                                ; preds = %1
  %8 = getelementptr inbounds nuw %"class.rocksdb::StderrLogger", ptr %3, i32 0, i32 1
  %9 = load ptr, ptr %8, align 8, !tbaa !11
  call void @free(ptr noundef %9) #11
  br label %10

10:                                               ; preds = %7, %1
  call void @_ZN7rocksdb6LoggerD2Ev(ptr noundef nonnull align 8 dereferenceable(10) %3) #11
  ret void
}