; Function Attrs: mustprogress nounwind uwtable
define void @_ZN7rocksdb12StderrLoggerD2Ev(ptr noundef nonnull align 8 dereferenceable(32) initializes((0, 8)) %0) unnamed_addr #0 align 2 {
  store ptr getelementptr inbounds nuw inrange(-16, 88) (i8, ptr @_ZTVN7rocksdb12StderrLoggerE, i64 16), ptr %0, align 8, !tbaa !4
  %2 = getelementptr inbounds nuw i8, ptr %0, i64 16
  %3 = load ptr, ptr %2, align 8, !tbaa !7
  %.not = icmp eq ptr %3, null
  br i1 %.not, label %5, label %4

4:                                                ; preds = %1
  tail call void @free(ptr noundef nonnull %3) #11
  br label %5

5:                                                ; preds = %4, %1
  tail call void @_ZN7rocksdb6LoggerD2Ev(ptr noundef nonnull align 8 dereferenceable(10) %0) #11
  ret void
}